target datalayout = "e-m:e-p270:32:32-p271:32:32-p272:64:64-i64:64-i128:128-f80:128-n8:16:32:64-S128"
target triple = "x86_64-unknown-linux-gnu"

%"class.Assimp::DefaultIOStream" = type { %"class.Assimp::IOStream", ptr, %"class.std::__cxx11::basic_string", i64 }
%"class.Assimp::IOStream" = type { ptr }
%"class.std::__cxx11::basic_string" = type { %"struct.std::__cxx11::basic_string<char>::_Alloc_hider", i64, %union.anon }
%"struct.std::__cxx11::basic_string<char>::_Alloc_hider" = type { ptr }
%union.anon = type { i64, [8 x i8] }
%struct.stat = type { i64, i64, i64, i32, i32, i32, i32, i64, i64, i64, i64, %struct.timespec, %struct.timespec, %struct.timespec, [3 x i64] }
%struct.timespec = type { i64, i64 }

; Function Attrs: mustprogress nounwind uwtable
define noundef i64 @_ZNK6Assimp15DefaultIOStream8FileSizeEv(ptr noundef nonnull align 8 dereferenceable(56) %this) unnamed_addr #0 align 2 {
entry:
  %retval = alloca i64, align 8
  %this.addr = alloca ptr, align 8
  %fileStat = alloca %struct.stat, align 8
  %err = alloca i32, align 4
  %cachedSize = alloca i64, align 8
  store ptr %this, ptr %this.addr, align 8
  %this1 = load ptr, ptr %this.addr, align 8
  %mFile = getelementptr inbounds %"class.Assimp::DefaultIOStream", ptr %this1, i32 0, i32 1
  %0 = load ptr, ptr %mFile, align 8
  %tobool = icmp ne ptr %0, null
  br i1 %tobool, label %lor.lhs.false, label %if.then

lor.lhs.false:                                    ; preds = %entry
  %mFilename = getelementptr inbounds %"class.Assimp::DefaultIOStream", ptr %this1, i32 0, i32 2
  %call = call noundef zeroext i1 @_ZNKSt7__cxx1112basic_stringIcSt11char_traitsIcESaIcEE5emptyEv(ptr noundef nonnull align 8 dereferenceable(32) %mFilename) #7
  br i1 %call, label %if.then, label %if.end

if.then:                                          ; preds = %lor.lhs.false, %entry
  store i64 0, ptr %retval, align 8
  br label %return

if.end:                                           ; preds = %lor.lhs.false
  %mCachedSize = getelementptr inbounds %"class.Assimp::DefaultIOStream", ptr %this1, i32 0, i32 3
  %1 = load i64, ptr %mCachedSize, align 8
  %cmp = icmp eq i64 -1, %1
  br i1 %cmp, label %if.then2, label %if.end10

if.then2:                                         ; preds = %if.end
  %mFilename3 = getelementptr inbounds %"class.Assimp::DefaultIOStream", ptr %this1, i32 0, i32 2
  %call4 = call noundef ptr @_ZNKSt7__cxx1112basic_stringIcSt11char_traitsIcESaIcEE5c_strEv(ptr noundef nonnull align 8 dereferenceable(32) %mFilename3) #7
  %call5 = call i32 @stat(ptr noundef %call4, ptr noundef %fileStat) #7
  store i32 %call5, ptr %err, align 4
  %2 = load i32, ptr %err, align 4
  %cmp6 = icmp ne i32 0, %2
  br i1 %cmp6, label %if.then7, label %if.end8

if.then7:                                         ; preds = %if.then2
  store i64 0, ptr %retval, align 8
  br label %return

if.end8:                                          ; preds = %if.then2
  %st_size = getelementptr inbounds %struct.stat, ptr %fileStat, i32 0, i32 8
  %3 = load i64, ptr %st_size, align 8
  store i64 %3, ptr %cachedSize, align 8
  %4 = load i64, ptr %cachedSize, align 8
  %mCachedSize9 = getelementptr inbounds %"class.Assimp::DefaultIOStream", ptr %this1, i32 0, i32 3
  store i64 %4, ptr %mCachedSize9, align 8
  br label %if.end10

if.end10:                                         ; preds = %if.end8, %if.end
  %mCachedSize11 = getelementptr inbounds %"class.Assimp::DefaultIOStream", ptr %this1, i32 0, i32 3
  %5 = load i64, ptr %mCachedSize11, align 8
  store i64 %5, ptr %retval, align 8
  br label %return

return:                                           ; preds = %if.end10, %if.then7, %if.then
  %6 = load i64, ptr %retval, align 8
  ret i64 %6
}