; Function Attrs: mustprogress nounwind uwtable
define noundef i64 @_ZNK6Assimp15DefaultIOStream8FileSizeEv(ptr noundef nonnull align 8 dereferenceable(56) %this) unnamed_addr #0 align 2 {
entry:
  %fileStat = alloca %struct.stat, align 8
  %mFile = getelementptr inbounds i8, ptr %this, i64 8
  %0 = load ptr, ptr %mFile, align 8
  %tobool.not = icmp eq ptr %0, null
  br i1 %tobool.not, label %return, label %lor.lhs.false

lor.lhs.false:                                    ; preds = %entry
  %mFilename = getelementptr inbounds i8, ptr %this, i64 16
  %call = tail call noundef zeroext i1 @_ZNKSt7__cxx1112basic_stringIcSt11char_traitsIcESaIcEE5emptyEv(ptr noundef nonnull align 8 dereferenceable(32) %mFilename) #4
  br i1 %call, label %return, label %if.end

if.end:                                           ; preds = %lor.lhs.false
  %mCachedSize = getelementptr inbounds i8, ptr %this, i64 48
  %1 = load i64, ptr %mCachedSize, align 8
  %cmp = icmp eq i64 %1, -1
  br i1 %cmp, label %if.then2, label %return

if.then2:                                         ; preds = %if.end
  %call4 = tail call noundef ptr @_ZNKSt7__cxx1112basic_stringIcSt11char_traitsIcESaIcEE5c_strEv(ptr noundef nonnull align 8 dereferenceable(32) %mFilename) #4
  %call5 = call i32 @stat(ptr noundef %call4, ptr noundef nonnull %fileStat) #4
  %cmp6.not = icmp eq i32 %call5, 0
  br i1 %cmp6.not, label %if.end8, label %return

if.end8:                                          ; preds = %if.then2
  %st_size = getelementptr inbounds i8, ptr %fileStat, i64 48
  %2 = load i64, ptr %st_size, align 8
  store i64 %2, ptr %mCachedSize, align 8
  br label %return

return:                                           ; preds = %if.end, %if.end8, %if.then2, %entry, %lor.lhs.false
  %retval.0 = phi i64 [ 0, %lor.lhs.false ], [ 0, %entry ], [ 0, %if.then2 ], [ %2, %if.end8 ], [ %1, %if.end ]
  ret i64 %retval.0
}